target datalayout = "e-m:e-p270:32:32-p271:32:32-p272:64:64-i64:64-i128:128-f80:128-n8:16:32:64-S128"
target triple = "x86_64-pc-linux-gnu"

%"class.llvm::SmallVectorBase" = type { ptr, i32, i32 }
%"class.llvm::SmallVector.1172" = type { %"class.llvm::SmallVectorImpl.1173", %"struct.llvm::SmallVectorStorage.1176" }
%"class.llvm::SmallVectorImpl.1173" = type { %"class.llvm::SmallVectorTemplateBase.1174" }
%"class.llvm::SmallVectorTemplateBase.1174" = type { %"class.llvm::SmallVectorTemplateCommon.1175" }
%"class.llvm::SmallVectorTemplateCommon.1175" = type { %"class.llvm::SmallVectorBase" }
%"struct.llvm::SmallVectorStorage.1176" = type { [160 x i8] }
%"class.llvm::ImutAVLTreeInOrderIterator" = type { %"class.llvm::ImutAVLTreeGenericIterator" }
%"class.llvm::ImutAVLTreeGenericIterator" = type { %"class.llvm::SmallVector.1172" }

; Function Attrs: mustprogress nounwind uwtable
define linkonce_odr hidden noundef ptr @_ZNK4llvm25SmallVectorTemplateCommonImvE5beginEv(ptr noundef nonnull align 8 dereferenceable(16) %0) #0 comdat align 2 {
  %2 = alloca ptr, align 8
  store ptr %0, ptr %2, align 8
  %3 = load ptr, ptr %2, align 8
  %4 = getelementptr inbounds nuw %"class.llvm::SmallVectorBase", ptr %3, i32 0, i32 0
  %5 = load ptr, ptr %4, align 8
  ret ptr %5
}

; Function Attrs: mustprogress nounwind uwtable
define linkonce_odr hidden noundef ptr @_ZN4llvm25SmallVectorTemplateCommonImvE5beginEv(ptr noundef nonnull align 8 dereferenceable(16) %0) #0 comdat align 2 {
  %2 = alloca ptr, align 8
  store ptr %0, ptr %2, align 8
  %3 = load ptr, ptr %2, align 8
  %4 = getelementptr inbounds nuw %"class.llvm::SmallVectorBase", ptr %3, i32 0, i32 0
  %5 = load ptr, ptr %4, align 8
  ret ptr %5
}

; Function Attrs: mustprogress nounwind uwtable
define linkonce_odr hidden noundef ptr @_ZNK4llvm25SmallVectorTemplateCommonImvE3endEv(ptr noundef nonnull align 8 dereferenceable(16) %0) #0 comdat align 2 {
  %2 = alloca ptr, align 8
  store ptr %0, ptr %2, align 8
  %3 = load ptr, ptr %2, align 8
  %4 = call noundef ptr @_ZNK4llvm25SmallVectorTemplateCommonImvE5beginEv(ptr noundef nonnull align 8 dereferenceable(16) %3)
  %5 = call noundef i64 @_ZNK4llvm15SmallVectorBaseIjE4sizeEv(ptr noundef nonnull align 8 dereferenceable(16) %3)
  %6 = getelementptr inbounds i64, ptr %4, i64 %5
  ret ptr %6
}

; Function Attrs: mustprogress nounwind uwtable
define linkonce_odr hidden noundef ptr @_ZN4llvm25SmallVectorTemplateCommonImvE3endEv(ptr noundef nonnull align 8 dereferenceable(16) %0) #0 comdat align 2 {
  %2 = alloca ptr, align 8
  store ptr %0, ptr %2, align 8
  %3 = load ptr, ptr %2, align 8
  %4 = call noundef ptr @_ZN4llvm25SmallVectorTemplateCommonImvE5beginEv(ptr noundef nonnull align 8 dereferenceable(16) %3)
  %5 = call noundef i64 @_ZNK4llvm15SmallVectorBaseIjE4sizeEv(ptr noundef nonnull align 8 dereferenceable(16) %3)
  %6 = getelementptr inbounds i64, ptr %4, i64 %5
  ret ptr %6
}

; Function Attrs: mustprogress nounwind uwtable
define linkonce_odr hidden noundef nonnull align 8 dereferenceable(8) ptr @_ZNK4llvm25SmallVectorTemplateCommonImvE4backEv(ptr noundef nonnull align 8 dereferenceable(16) %0) #0 comdat align 2 {
  %2 = alloca ptr, align 8
  store ptr %0, ptr %2, align 8
  %3 = load ptr, ptr %2, align 8
  %4 = call noundef ptr @_ZNK4llvm25SmallVectorTemplateCommonImvE3endEv(ptr noundef nonnull align 8 dereferenceable(16) %3)
  %5 = getelementptr inbounds i64, ptr %4, i64 -1
  ret ptr %5
}

; Function Attrs: mustprogress nounwind uwtable
define linkonce_odr hidden noundef nonnull align 8 dereferenceable(8) ptr @_ZN4llvm25SmallVectorTemplateCommonImvE4backEv(ptr noundef nonnull align 8 dereferenceable(16) %0) #0 comdat align 2 {
  %2 = alloca ptr, align 8
  store ptr %0, ptr %2, align 8
  %3 = load ptr, ptr %2, align 8
  %4 = call noundef ptr @_ZN4llvm25SmallVectorTemplateCommonImvE3endEv(ptr noundef nonnull align 8 dereferenceable(16) %3)
  %5 = getelementptr inbounds i64, ptr %4, i64 -1
  ret ptr %5
}

; Function Attrs: mustprogress nounwind uwtable
define linkonce_odr hidden void @_ZN4llvm23SmallVectorTemplateBaseImLb1EE8pop_backEv(ptr noundef nonnull align 8 dereferenceable(16) %0) #0 comdat align 2 {
  %2 = alloca ptr, align 8
  store ptr %0, ptr %2, align 8
  %3 = load ptr, ptr %2, align 8
  %4 = call noundef i64 @_ZNK4llvm15SmallVectorBaseIjE4sizeEv(ptr noundef nonnull align 8 dereferenceable(16) %3)
  %5 = sub i64 %4, 1
  call void @_ZN4llvm15SmallVectorBaseIjE8set_sizeEm(ptr noundef nonnull align 8 dereferenceable(16) %3, i64 noundef %5)
  ret void
}

; Function Attrs: mustprogress nounwind uwtable
define internal noundef i64 @_ZNK4llvm26ImutAVLTreeGenericIteratorINS_16ImutKeyValueInfoIN12_GLOBAL__N_110BindingKeyEN5clang4ento4SValEEEE13getVisitStateEv(ptr noundef nonnull align 8 dereferenceable(176) %0) #0 align 2 {
  %2 = alloca ptr, align 8
  store ptr %0, ptr %2, align 8
  %3 = load ptr, ptr %2, align 8
  %4 = getelementptr inbounds nuw %"class.llvm::ImutAVLTreeGenericIterator", ptr %3, i32 0, i32 0
  %5 = call noundef nonnull align 8 dereferenceable(8) ptr @_ZNK4llvm25SmallVectorTemplateCommonImvE4backEv(ptr noundef nonnull align 8 dereferenceable(16) %4)
  %6 = load i64, ptr %5, align 8
  %7 = and i64 %6, 3
  ret i64 %7
}

; Function Attrs: mustprogress nounwind uwtable
define internal noundef zeroext i1 @_ZNK4llvm26ImutAVLTreeGenericIteratorINS_16ImutKeyValueInfoIN12_GLOBAL__N_110BindingKeyEN5clang4ento4SValEEEE5atEndEv(ptr noundef nonnull align 8 dereferenceable(176) %0) #0 align 2 {
  %2 = alloca ptr, align 8
  store ptr %0, ptr %2, align 8
  %3 = load ptr, ptr %2, align 8
  %4 = getelementptr inbounds nuw %"class.llvm::ImutAVLTreeGenericIterator", ptr %3, i32 0, i32 0
  %5 = call noundef zeroext i1 @_ZNK4llvm15SmallVectorBaseIjE5emptyEv(ptr noundef nonnull align 8 dereferenceable(16) %4)
  ret i1 %5
}

; Function Attrs: mustprogress nounwind uwtable
define internal void @_ZN4llvm26ImutAVLTreeGenericIteratorINS_16ImutKeyValueInfoIN12_GLOBAL__N_110BindingKeyEN5clang4ento4SValEEEE12skipToParentEv(ptr noundef nonnull align 8 dereferenceable(176) %0) #0 align 2 {
  %2 = alloca ptr, align 8
  store ptr %0, ptr %2, align 8
  %3 = load ptr, ptr %2, align 8
  %4 = getelementptr inbounds nuw %"class.llvm::ImutAVLTreeGenericIterator", ptr %3, i32 0, i32 0
  call void @_ZN4llvm23SmallVectorTemplateBaseImLb1EE8pop_backEv(ptr noundef nonnull align 8 dereferenceable(16) %4)
  %5 = getelementptr inbounds nuw %"class.llvm::ImutAVLTreeGenericIterator", ptr %3, i32 0, i32 0
  %6 = call noundef zeroext i1 @_ZNK4llvm15SmallVectorBaseIjE5emptyEv(ptr noundef nonnull align 8 dereferenceable(16) %5)
  br i1 %6, label %7, label %8

7:                                                ; preds = %1
  br label %21

8:                                                ; preds = %1
  %9 = call noundef i64 @_ZNK4llvm26ImutAVLTreeGenericIteratorINS_16ImutKeyValueInfoIN12_GLOBAL__N_110BindingKeyEN5clang4ento4SValEEEE13getVisitStateEv(ptr noundef nonnull align 8 dereferenceable(176) %3)
  switch i64 %9, label %20 [
    i64 0, label %10
    i64 1, label %15
  ]

10:                                               ; preds = %8
  %11 = getelementptr inbounds nuw %"class.llvm::ImutAVLTreeGenericIterator", ptr %3, i32 0, i32 0
  %12 = call noundef nonnull align 8 dereferenceable(8) ptr @_ZN4llvm25SmallVectorTemplateCommonImvE4backEv(ptr noundef nonnull align 8 dereferenceable(16) %11)
  %13 = load i64, ptr %12, align 8
  %14 = or i64 %13, 1
  store i64 %14, ptr %12, align 8
  br label %21

15:                                               ; preds = %8
  %16 = getelementptr inbounds nuw %"class.llvm::ImutAVLTreeGenericIterator", ptr %3, i32 0, i32 0
  %17 = call noundef nonnull align 8 dereferenceable(8) ptr @_ZN4llvm25SmallVectorTemplateCommonImvE4backEv(ptr noundef nonnull align 8 dereferenceable(16) %16)
  %18 = load i64, ptr %17, align 8
  %19 = or i64 %18, 3
  store i64 %19, ptr %17, align 8
  br label %21

20:                                               ; preds = %8
  unreachable

21:                                               ; preds = %15, %10, %7
  ret void
}

; Function Attrs: mustprogress nounwind uwtable
define internal void @_ZN4llvm26ImutAVLTreeInOrderIteratorINS_16ImutKeyValueInfoIN12_GLOBAL__N_110BindingKeyEN5clang4ento4SValEEEE11skipSubTreeEv(ptr noundef nonnull align 8 dereferenceable(176) %0) #0 align 2 {
  %2 = alloca ptr, align 8
  store ptr %0, ptr %2, align 8
  %3 = load ptr, ptr %2, align 8
  %4 = getelementptr inbounds nuw %"class.llvm::ImutAVLTreeInOrderIterator", ptr %3, i32 0, i32 0
  call void @_ZN4llvm26ImutAVLTreeGenericIteratorINS_16ImutKeyValueInfoIN12_GLOBAL__N_110BindingKeyEN5clang4ento4SValEEEE12skipToParentEv(ptr noundef nonnull align 8 dereferenceable(176) %4)
  br label %5

5:                                                ; preds = %14, %1
  %6 = getelementptr inbounds nuw %"class.llvm::ImutAVLTreeInOrderIterator", ptr %3, i32 0, i32 0
  %7 = call noundef zeroext i1 @_ZNK4llvm26ImutAVLTreeGenericIteratorINS_16ImutKeyValueInfoIN12_GLOBAL__N_110BindingKeyEN5clang4ento4SValEEEE5atEndEv(ptr noundef nonnull align 8 dereferenceable(176) %6)
  br i1 %7, label %12, label %8

8:                                                ; preds = %5
  %9 = getelementptr inbounds nuw %"class.llvm::ImutAVLTreeInOrderIterator", ptr %3, i32 0, i32 0
  %10 = call noundef i64 @_ZNK4llvm26ImutAVLTreeGenericIteratorINS_16ImutKeyValueInfoIN12_GLOBAL__N_110BindingKeyEN5clang4ento4SValEEEE13getVisitStateEv(ptr noundef nonnull align 8 dereferenceable(176) %9)
  %11 = icmp ne i64 %10, 1
  br label %12

12:                                               ; preds = %8, %5
  %13 = phi i1 [ false, %5 ], [ %11, %8 ]
  br i1 %13, label %14, label %17

14:                                               ; preds = %12
  %15 = getelementptr inbounds nuw %"class.llvm::ImutAVLTreeInOrderIterator", ptr %3, i32 0, i32 0
  %16 = call noundef nonnull align 8 dereferenceable(176) ptr @_ZN4llvm26ImutAVLTreeGenericIteratorINS_16ImutKeyValueInfoIN12_GLOBAL__N_110BindingKeyEN5clang4ento4SValEEEEppEv(ptr noundef nonnull align 8 dereferenceable(176) %15)
  br label %5, !llvm.loop !63

17:                                               ; preds = %12
  ret void
}