; Function Attrs: mustprogress nounwind uwtable
define internal fastcc void @_ZN4llvm26ImutAVLTreeInOrderIteratorINS_16ImutKeyValueInfoIN12_GLOBAL__N_110BindingKeyEN5clang4ento4SValEEEE11skipSubTreeEv(ptr noundef nonnull align 8 dereferenceable(176) %0) unnamed_addr #2 align 2 {
  %2 = tail call noundef i64 @_ZNK4llvm15SmallVectorBaseIjE4sizeEv(ptr noundef nonnull align 8 dereferenceable(176) %0) #17
  %3 = add i64 %2, -1
  tail call void @_ZN4llvm15SmallVectorBaseIjE8set_sizeEm(ptr noundef nonnull align 8 dereferenceable(176) %0, i64 noundef %3) #17
  %4 = tail call noundef zeroext i1 @_ZNK4llvm15SmallVectorBaseIjE5emptyEv(ptr noundef nonnull align 8 dereferenceable(176) %0) #17
  br i1 %4, label %_ZN4llvm26ImutAVLTreeGenericIteratorINS_16ImutKeyValueInfoIN12_GLOBAL__N_110BindingKeyEN5clang4ento4SValEEEE12skipToParentEv.exit, label %.sink.split.i

.sink.split.i:                                    ; preds = %1
  %5 = load ptr, ptr %0, align 8
  %6 = tail call noundef i64 @_ZNK4llvm15SmallVectorBaseIjE4sizeEv(ptr noundef nonnull align 8 dereferenceable(176) %0) #17
  %7 = getelementptr inbounds i64, ptr %5, i64 %6
  %8 = getelementptr inbounds i8, ptr %7, i64 -8
  %9 = load i64, ptr %8, align 8
  %10 = and i64 %9, 3
  %switch.i = icmp eq i64 %10, 0
  %11 = load ptr, ptr %0, align 8
  %12 = tail call noundef i64 @_ZNK4llvm15SmallVectorBaseIjE4sizeEv(ptr noundef nonnull align 8 dereferenceable(176) %0) #17
  %13 = getelementptr inbounds i64, ptr %11, i64 %12
  %14 = getelementptr inbounds i8, ptr %13, i64 -8
  %15 = load i64, ptr %14, align 8
  %..i = select i1 %switch.i, i64 1, i64 3
  %16 = or i64 %15, %..i
  store i64 %16, ptr %14, align 8
  br label %_ZN4llvm26ImutAVLTreeGenericIteratorINS_16ImutKeyValueInfoIN12_GLOBAL__N_110BindingKeyEN5clang4ento4SValEEEE12skipToParentEv.exit

_ZN4llvm26ImutAVLTreeGenericIteratorINS_16ImutKeyValueInfoIN12_GLOBAL__N_110BindingKeyEN5clang4ento4SValEEEE12skipToParentEv.exit: ; preds = %1, %.sink.split.i
  %17 = tail call noundef zeroext i1 @_ZNK4llvm15SmallVectorBaseIjE5emptyEv(ptr noundef nonnull align 8 dereferenceable(176) %0) #17
  br i1 %17, label %.critedge, label %.lr.ph

.lr.ph:                                           ; preds = %_ZN4llvm26ImutAVLTreeGenericIteratorINS_16ImutKeyValueInfoIN12_GLOBAL__N_110BindingKeyEN5clang4ento4SValEEEE12skipToParentEv.exit, %24
  %18 = load ptr, ptr %0, align 8
  %19 = tail call noundef i64 @_ZNK4llvm15SmallVectorBaseIjE4sizeEv(ptr noundef nonnull align 8 dereferenceable(176) %0) #17
  %20 = getelementptr inbounds i64, ptr %18, i64 %19
  %21 = getelementptr inbounds i8, ptr %20, i64 -8
  %22 = load i64, ptr %21, align 8
  %23 = and i64 %22, 3
  %.not = icmp eq i64 %23, 1
  br i1 %.not, label %.critedge, label %24

24:                                               ; preds = %.lr.ph
  %25 = tail call fastcc noundef nonnull align 8 dereferenceable(176) ptr @_ZN4llvm26ImutAVLTreeGenericIteratorINS_16ImutKeyValueInfoIN12_GLOBAL__N_110BindingKeyEN5clang4ento4SValEEEEppEv(ptr noundef nonnull align 8 dereferenceable(176) %0)
  %26 = tail call noundef zeroext i1 @_ZNK4llvm15SmallVectorBaseIjE5emptyEv(ptr noundef nonnull align 8 dereferenceable(176) %0) #17
  br i1 %26, label %.critedge, label %.lr.ph, !llvm.loop !431

.critedge:                                        ; preds = %.lr.ph, %24, %_ZN4llvm26ImutAVLTreeGenericIteratorINS_16ImutKeyValueInfoIN12_GLOBAL__N_110BindingKeyEN5clang4ento4SValEEEE12skipToParentEv.exit
  ret void
}